target datalayout = "e-m:e-p270:32:32-p271:32:32-p272:64:64-i64:64-i128:128-f80:128-n8:16:32:64-S128"
target triple = "x86_64-unknown-linux-gnu"

%struct.gsec_aes_gcm_aead_crypter = type { %struct.gsec_aead_crypter, i64, i64, ptr, ptr }
%struct.gsec_aead_crypter = type { ptr }

@.str.34 = private unnamed_addr constant [25 x i8] c"nonce_length is nullptr.\00", align 1

; Function Attrs: mustprogress uwtable
define internal noundef i32 @_ZL38gsec_aes_gcm_aead_crypter_nonce_lengthPK17gsec_aead_crypterPmPPc(ptr noundef %crypter, ptr noundef %nonce_length, ptr noundef %error_details) #0 {
entry:
  %retval = alloca i32, align 4
  %crypter.addr = alloca ptr, align 8
  %nonce_length.addr = alloca ptr, align 8
  %error_details.addr = alloca ptr, align 8
  %aes_gcm_crypter = alloca ptr, align 8
  store ptr %crypter, ptr %crypter.addr, align 8
  store ptr %nonce_length, ptr %nonce_length.addr, align 8
  store ptr %error_details, ptr %error_details.addr, align 8
  %0 = load ptr, ptr %nonce_length.addr, align 8
  %cmp = icmp eq ptr %0, null
  br i1 %cmp, label %if.then, label %if.end

if.then:                                          ; preds = %entry
  %1 = load ptr, ptr %error_details.addr, align 8
  call void @_ZL21aes_gcm_format_errorsPKcPPc(ptr noundef @.str.34, ptr noundef %1)
  store i32 3, ptr %retval, align 4
  br label %return

if.end:                                           ; preds = %entry
  %2 = load ptr, ptr %crypter.addr, align 8
  store ptr %2, ptr %aes_gcm_crypter, align 8
  %3 = load ptr, ptr %aes_gcm_crypter, align 8
  %nonce_length1 = getelementptr inbounds %struct.gsec_aes_gcm_aead_crypter, ptr %3, i32 0, i32 1
  %4 = load i64, ptr %nonce_length1, align 8
  %5 = load ptr, ptr %nonce_length.addr, align 8
  store i64 %4, ptr %5, align 8
  store i32 0, ptr %retval, align 4
  br label %return

return:                                           ; preds = %if.end, %if.then
  %6 = load i32, ptr %retval, align 4
  ret i32 %6
}