; Function Attrs: mustprogress uwtable
define internal noundef i32 @_ZL38gsec_aes_gcm_aead_crypter_nonce_lengthPK17gsec_aead_crypterPmPPc(ptr nocapture noundef readonly %crypter, ptr noundef writeonly %nonce_length, ptr noundef %error_details) #0 {
entry:
  %cmp = icmp eq ptr %nonce_length, null
  br i1 %cmp, label %if.then, label %if.end

if.then:                                          ; preds = %entry
  tail call fastcc void @_ZL21aes_gcm_format_errorsPKcPPc(ptr noundef nonnull @.str.34, ptr noundef %error_details)
  br label %return

if.end:                                           ; preds = %entry
  %nonce_length1 = getelementptr inbounds i8, ptr %crypter, i64 8
  %0 = load i64, ptr %nonce_length1, align 8
  store i64 %0, ptr %nonce_length, align 8
  br label %return

return:                                           ; preds = %if.end, %if.then
  %retval.0 = phi i32 [ 3, %if.then ], [ 0, %if.end ]
  ret i32 %retval.0
}